; ModuleID = '20/1059.c'
source_filename = "20/1059.c"
target datalayout = "e-m:e-p270:32:32-p271:32:32-p272:64:64-i64:64-f80:128-n8:16:32:64-S128"
target triple = "x86_64-pc-linux-gnu"

@.str = private unnamed_addr constant [5 x i8] c"%s%s\00", align 1
@.str.1 = private unnamed_addr constant [4 x i8] c"%s\0A\00", align 1

; Function Attrs: noinline nounwind uwtable
define dso_local i32 @main() #0 {
  %1 = alloca i32, align 4
  %2 = alloca [11 x i8], align 1
  %3 = alloca [4 x i8], align 1
  %4 = alloca i8, align 1
  %5 = alloca [14 x i8], align 1
  %6 = alloca i32, align 4
  %7 = alloca i32, align 4
  store i32 0, i32* %1, align 4
  %8 = bitcast [14 x i8]* %5 to i8*
  call void @llvm.memset.p0i8.i64(i8* align 1 %8, i8 0, i64 14, i1 false)
  br label %9

9:                                                ; preds = %122, %0
  %10 = getelementptr inbounds [11 x i8], [11 x i8]* %2, i64 0, i64 0
  %11 = getelementptr inbounds [4 x i8], [4 x i8]* %3, i64 0, i64 0
  %12 = call i32 (i8*, ...) @__isoc99_scanf(i8* getelementptr inbounds ([5 x i8], [5 x i8]* @.str, i64 0, i64 0), i8* %10, i8* %11)
  %13 = icmp ne i32 %12, -1
  br i1 %13, label %14, label %128

14:                                               ; preds = %9
  %15 = getelementptr inbounds [11 x i8], [11 x i8]* %2, i64 0, i64 0
  %16 = load i8, i8* %15, align 1
  store i8 %16, i8* %4, align 1
  store i32 1, i32* %7, align 4
  br label %17

17:                                               ; preds = %38, %14
  %18 = load i32, i32* %7, align 4
  %19 = sext i32 %18 to i64
  %20 = getelementptr inbounds [11 x i8], [11 x i8]* %2, i64 0, i64 0
  %21 = call i64 @strlen(i8* %20) #4
  %22 = icmp ult i64 %19, %21
  br i1 %22, label %23, label %41

23:                                               ; preds = %17
  %24 = load i32, i32* %7, align 4
  %25 = sext i32 %24 to i64
  %26 = getelementptr inbounds [11 x i8], [11 x i8]* %2, i64 0, i64 %25
  %27 = load i8, i8* %26, align 1
  %28 = sext i8 %27 to i32
  %29 = load i8, i8* %4, align 1
  %30 = sext i8 %29 to i32
  %31 = icmp sgt i32 %28, %30
  br i1 %31, label %32, label %37

32:                                               ; preds = %23
  %33 = load i32, i32* %7, align 4
  %34 = sext i32 %33 to i64
  %35 = getelementptr inbounds [11 x i8], [11 x i8]* %2, i64 0, i64 %34
  %36 = load i8, i8* %35, align 1
  store i8 %36, i8* %4, align 1
  br label %37

37:                                               ; preds = %32, %23
  br label %38

38:                                               ; preds = %37
  %39 = load i32, i32* %7, align 4
  %40 = add nsw i32 %39, 1
  store i32 %40, i32* %7, align 4
  br label %17

41:                                               ; preds = %17
  store i32 0, i32* %6, align 4
  br label %42

42:                                               ; preds = %59, %41
  %43 = load i32, i32* %6, align 4
  %44 = sext i32 %43 to i64
  %45 = getelementptr inbounds [11 x i8], [11 x i8]* %2, i64 0, i64 0
  %46 = call i64 @strlen(i8* %45) #4
  %47 = icmp ult i64 %44, %46
  br i1 %47, label %48, label %62

48:                                               ; preds = %42
  %49 = load i32, i32* %6, align 4
  %50 = sext i32 %49 to i64
  %51 = getelementptr inbounds [11 x i8], [11 x i8]* %2, i64 0, i64 %50
  %52 = load i8, i8* %51, align 1
  %53 = sext i8 %52 to i32
  %54 = load i8, i8* %4, align 1
  %55 = sext i8 %54 to i32
  %56 = icmp eq i32 %53, %55
  br i1 %56, label %57, label %58

57:                                               ; preds = %48
  br label %62

58:                                               ; preds = %48
  br label %59

59:                                               ; preds = %58
  %60 = load i32, i32* %6, align 4
  %61 = add nsw i32 %60, 1
  store i32 %61, i32* %6, align 4
  br label %42

62:                                               ; preds = %57, %42
  store i32 0, i32* %7, align 4
  br label %63

63:                                               ; preds = %75, %62
  %64 = load i32, i32* %7, align 4
  %65 = load i32, i32* %6, align 4
  %66 = icmp sle i32 %64, %65
  br i1 %66, label %67, label %78

67:                                               ; preds = %63
  %68 = load i32, i32* %7, align 4
  %69 = sext i32 %68 to i64
  %70 = getelementptr inbounds [11 x i8], [11 x i8]* %2, i64 0, i64 %69
  %71 = load i8, i8* %70, align 1
  %72 = load i32, i32* %7, align 4
  %73 = sext i32 %72 to i64
  %74 = getelementptr inbounds [14 x i8], [14 x i8]* %5, i64 0, i64 %73
  store i8 %71, i8* %74, align 1
  br label %75

75:                                               ; preds = %67
  %76 = load i32, i32* %7, align 4
  %77 = add nsw i32 %76, 1
  store i32 %77, i32* %7, align 4
  br label %63

78:                                               ; preds = %63
  %79 = load i32, i32* %6, align 4
  %80 = add nsw i32 %79, 1
  store i32 %80, i32* %7, align 4
  br label %81

81:                                               ; preds = %97, %78
  %82 = load i32, i32* %7, align 4
  %83 = load i32, i32* %6, align 4
  %84 = add nsw i32 %83, 4
  %85 = icmp slt i32 %82, %84
  br i1 %85, label %86, label %100

86:                                               ; preds = %81
  %87 = load i32, i32* %7, align 4
  %88 = load i32, i32* %6, align 4
  %89 = sub nsw i32 %87, %88
  %90 = sub nsw i32 %89, 1
  %91 = sext i32 %90 to i64
  %92 = getelementptr inbounds [4 x i8], [4 x i8]* %3, i64 0, i64 %91
  %93 = load i8, i8* %92, align 1
  %94 = load i32, i32* %7, align 4
  %95 = sext i32 %94 to i64
  %96 = getelementptr inbounds [14 x i8], [14 x i8]* %5, i64 0, i64 %95
  store i8 %93, i8* %96, align 1
  br label %97

97:                                               ; preds = %86
  %98 = load i32, i32* %7, align 4
  %99 = add nsw i32 %98, 1
  store i32 %99, i32* %7, align 4
  br label %81

100:                                              ; preds = %81
  br label %101

101:                                              ; preds = %119, %100
  %102 = load i32, i32* %7, align 4
  %103 = sext i32 %102 to i64
  %104 = getelementptr inbounds [11 x i8], [11 x i8]* %2, i64 0, i64 0
  %105 = call i64 @strlen(i8* %104) #4
  %106 = getelementptr inbounds [4 x i8], [4 x i8]* %3, i64 0, i64 0
  %107 = call i64 @strlen(i8* %106) #4
  %108 = add i64 %105, %107
  %109 = icmp ult i64 %103, %108
  br i1 %109, label %110, label %122

110:                                              ; preds = %101
  %111 = load i32, i32* %7, align 4
  %112 = sub nsw i32 %111, 3
  %113 = sext i32 %112 to i64
  %114 = getelementptr inbounds [11 x i8], [11 x i8]* %2, i64 0, i64 %113
  %115 = load i8, i8* %114, align 1
  %116 = load i32, i32* %7, align 4
  %117 = sext i32 %116 to i64
  %118 = getelementptr inbounds [14 x i8], [14 x i8]* %5, i64 0, i64 %117
  store i8 %115, i8* %118, align 1
  br label %119

119:                                              ; preds = %110
  %120 = load i32, i32* %7, align 4
  %121 = add nsw i32 %120, 1
  store i32 %121, i32* %7, align 4
  br label %101

122:                                              ; preds = %101
  %123 = load i32, i32* %7, align 4
  %124 = sext i32 %123 to i64
  %125 = getelementptr inbounds [14 x i8], [14 x i8]* %5, i64 0, i64 %124
  store i8 0, i8* %125, align 1
  %126 = getelementptr inbounds [14 x i8], [14 x i8]* %5, i64 0, i64 0
  %127 = call i32 (i8*, ...) @printf(i8* getelementptr inbounds ([4 x i8], [4 x i8]* @.str.1, i64 0, i64 0), i8* %126)
  br label %9

128:                                              ; preds = %9
  %129 = load i32, i32* %1, align 4
  ret i32 %129
}

; Function Attrs: argmemonly nounwind willreturn
declare void @llvm.memset.p0i8.i64(i8* nocapture writeonly, i8, i64, i1 immarg) #1

declare dso_local i32 @__isoc99_scanf(i8*, ...) #2

; Function Attrs: nounwind readonly
declare dso_local i64 @strlen(i8*) #3

declare dso_local i32 @printf(i8*, ...) #2


!llvm.module.flags = !{!0}
!llvm.ident = !{!1}

!0 = !{i32 1, !"wchar_size", i32 4}
!1 = !{!"clang version 10.0.0-4ubuntu1 "}
